target datalayout = "e-m:e-p270:32:32-p271:32:32-p272:64:64-i64:64-i128:128-f80:128-n8:16:32:64-S128"
target triple = "x86_64-pc-linux-gnu"

%struct._ir_insn = type { %struct.anon, %union.anon.6 }
%struct.anon = type { %union.anon.0, %union.anon.5 }
%union.anon.0 = type { i32 }
%union.anon.5 = type { i32 }
%union.anon.6 = type { %union._ir_val }
%union._ir_val = type { double }
%struct._ir_ctx = type { ptr, i32, i32, i32, i32, i32, i32, i32, i32, i32, i32, %struct._ir_insn, ptr, ptr, ptr, i32, i32, i32, ptr, ptr, ptr, ptr, ptr, i32, i32, i64, i32, i32, i32, i64, i32, i32, i32, i32, ptr, ptr, ptr, ptr, ptr, ptr, %union.anon.14, ptr, i32, i32, i32, i64, i32, i32, i32, ptr, ptr, ptr, ptr, %struct._ir_strtab, [61 x i32], [14 x i32] }
%union.anon.14 = type { ptr }
%struct._ir_strtab = type { ptr, i32, i32, i32, i32, ptr, i32, i32 }
%struct.anon.1 = type { %union.anon.2, %union.anon.4 }
%union.anon.2 = type { i16 }
%union.anon.4 = type { i16 }
%struct.anon.3 = type { i8, i8 }

; Function Attrs: nounwind uwtable
define internal zeroext i1 @ir_match_has_mem_deps(ptr noundef %0, i32 noundef %1, i32 noundef %2) #0 {
  %4 = alloca i1, align 1
  %5 = alloca ptr, align 8
  %6 = alloca i32, align 4
  %7 = alloca i32, align 4
  %8 = alloca i32, align 4
  %9 = alloca ptr, align 8
  store ptr %0, ptr %5, align 8
  store i32 %1, ptr %6, align 4
  store i32 %2, ptr %7, align 4
  %10 = load i32, ptr %6, align 4
  %11 = add nsw i32 %10, 1
  %12 = load i32, ptr %7, align 4
  %13 = icmp ne i32 %11, %12
  br i1 %13, label %14, label %62

14:                                               ; preds = %3
  %15 = load ptr, ptr %5, align 8
  %16 = getelementptr inbounds %struct._ir_ctx, ptr %15, i32 0, i32 39
  %17 = load ptr, ptr %16, align 8
  %18 = load i32, ptr %7, align 4
  %19 = sext i32 %18 to i64
  %20 = getelementptr inbounds i32, ptr %17, i64 %19
  %21 = load i32, ptr %20, align 4
  store i32 %21, ptr %8, align 4
  br label %22

22:                                               ; preds = %57, %14
  %23 = load ptr, ptr %5, align 8
  %24 = getelementptr inbounds %struct._ir_ctx, ptr %23, i32 0, i32 0
  %25 = load ptr, ptr %24, align 8
  %26 = load i32, ptr %8, align 4
  %27 = sext i32 %26 to i64
  %28 = getelementptr inbounds %struct._ir_insn, ptr %25, i64 %27
  store ptr %28, ptr %9, align 8
  %29 = load ptr, ptr %9, align 8
  %30 = getelementptr inbounds %struct._ir_insn, ptr %29, i32 0, i32 0
  %31 = getelementptr inbounds %struct.anon, ptr %30, i32 0, i32 0
  %32 = getelementptr inbounds %struct.anon.1, ptr %31, i32 0, i32 0
  %33 = getelementptr inbounds %struct.anon.3, ptr %32, i32 0, i32 0
  %34 = load i8, ptr %33, align 8
  %35 = zext i8 %34 to i32
  %36 = icmp eq i32 %35, 79
  br i1 %36, label %37, label %38

37:                                               ; preds = %22
  store i1 true, ptr %4, align 1
  br label %63

38:                                               ; preds = %22
  %39 = load ptr, ptr %9, align 8
  %40 = getelementptr inbounds %struct._ir_insn, ptr %39, i32 0, i32 0
  %41 = getelementptr inbounds %struct.anon, ptr %40, i32 0, i32 0
  %42 = getelementptr inbounds %struct.anon.1, ptr %41, i32 0, i32 0
  %43 = getelementptr inbounds %struct.anon.3, ptr %42, i32 0, i32 0
  %44 = load i8, ptr %43, align 8
  %45 = zext i8 %44 to i32
  %46 = icmp eq i32 %45, 69
  br i1 %46, label %47, label %48

47:                                               ; preds = %38
  store i1 true, ptr %4, align 1
  br label %63

48:                                               ; preds = %38
  br label %49

49:                                               ; preds = %48
  %50 = load ptr, ptr %5, align 8
  %51 = getelementptr inbounds %struct._ir_ctx, ptr %50, i32 0, i32 39
  %52 = load ptr, ptr %51, align 8
  %53 = load i32, ptr %8, align 4
  %54 = sext i32 %53 to i64
  %55 = getelementptr inbounds i32, ptr %52, i64 %54
  %56 = load i32, ptr %55, align 4
  store i32 %56, ptr %8, align 4
  br label %57

57:                                               ; preds = %49
  %58 = load i32, ptr %6, align 4
  %59 = load i32, ptr %8, align 4
  %60 = icmp ne i32 %58, %59
  br i1 %60, label %22, label %61

61:                                               ; preds = %57
  br label %62

62:                                               ; preds = %61, %3
  store i1 false, ptr %4, align 1
  br label %63

63:                                               ; preds = %62, %47, %37
  %64 = load i1, ptr %4, align 1
  ret i1 %64
}