; Function Attrs: nofree norecurse nosync nounwind memory(read, inaccessiblemem: none) uwtable
define internal fastcc noundef zeroext i1 @ir_match_has_mem_deps(ptr nocapture noundef readonly %0, i32 noundef %1, i32 noundef %2) unnamed_addr #11 {
  %4 = add nsw i32 %1, 1
  %.not = icmp eq i32 %4, %2
  br i1 %.not, label %.loopexit, label %5

5:                                                ; preds = %3
  %6 = getelementptr inbounds i8, ptr %0, i64 240
  %7 = load ptr, ptr %6, align 8
  %8 = sext i32 %2 to i64
  %9 = getelementptr inbounds i32, ptr %7, i64 %8
  %10 = load i32, ptr %9, align 4
  %11 = load ptr, ptr %0, align 8
  br label %12

12:                                               ; preds = %16, %5
  %.012 = phi i32 [ %10, %5 ], [ %18, %16 ]
  %13 = sext i32 %.012 to i64
  %14 = getelementptr inbounds %struct._ir_insn, ptr %11, i64 %13
  %15 = load i8, ptr %14, align 8
  switch i8 %15, label %16 [
    i8 79, label %.loopexit
    i8 69, label %.loopexit
  ]

16:                                               ; preds = %12
  %17 = getelementptr inbounds i32, ptr %7, i64 %13
  %18 = load i32, ptr %17, align 4
  %.not16 = icmp eq i32 %18, %1
  br i1 %.not16, label %.loopexit, label %12

.loopexit:                                        ; preds = %16, %12, %12, %3
  %.0 = phi i1 [ false, %3 ], [ false, %16 ], [ true, %12 ], [ true, %12 ]
  ret i1 %.0
}